target datalayout = "e-m:e-p270:32:32-p271:32:32-p272:64:64-i64:64-i128:128-f80:128-n8:16:32:64-S128"
target triple = "x86_64-pc-linux-gnu"

%struct.BrotliEncoderStateStruct = type { %struct.BrotliEncoderParams, %struct.MemoryManager, i64, %struct.RingBuffer, i64, ptr, i64, i64, i64, i64, i64, [16 x i32], [4 x i32], i16, i8, i8, i8, i8, i64, ptr, %struct.Hasher, [1024 x i32], ptr, i64, ptr, ptr, ptr, ptr, i64, ptr, i64, i64, %union.anon.0, i32, i32, i32, i32 }
%struct.BrotliEncoderParams = type { i32, i32, i32, i32, i64, i64, i32, i32, %struct.BrotliHasherParams, %struct.BrotliDistanceParams, %struct.SharedEncoderDictionary }
%struct.BrotliHasherParams = type { i32, i32, i32, i32 }
%struct.BrotliDistanceParams = type { i32, i32, i32, i32, i64 }
%struct.SharedEncoderDictionary = type { i32, %struct.CompoundDictionary, %struct.ContextualEncoderDictionary, i32 }
%struct.CompoundDictionary = type { i64, i64, [16 x ptr], [16 x ptr], [16 x i64], i64, [16 x ptr] }
%struct.ContextualEncoderDictionary = type { i32, i8, [64 x i8], [64 x ptr], i64, %struct.BrotliEncoderDictionary, ptr }
%struct.BrotliEncoderDictionary = type { ptr, i32, i32, i64, ptr, ptr, ptr, ptr, %struct.BrotliTrie, i32, ptr, ptr, ptr, i64, ptr, i64, ptr, ptr }
%struct.BrotliTrie = type { ptr, i64, i64, %struct.BrotliTrieNode }
%struct.BrotliTrieNode = type { i8, i8, i8, i32, i32 }
%struct.MemoryManager = type { ptr, ptr, ptr }
%struct.RingBuffer = type { i32, i32, i32, i32, i32, i32, ptr, ptr }
%struct.Hasher = type { %struct.HasherCommon, %union.anon }
%struct.HasherCommon = type { [4 x ptr], i32, i64, i64, %struct.BrotliHasherParams, i32 }
%union.anon = type { %struct.H42 }
%struct.H42 = type { [512 x i16], i64, [2 x ptr], ptr }
%union.anon.0 = type { [2 x i64] }

; Function Attrs: nounwind uwtable
define i32 @BrotliEncoderHasMoreOutput(ptr noundef %0) #0 {
  %2 = alloca ptr, align 8
  store ptr %0, ptr %2, align 8, !tbaa !3
  %3 = load ptr, ptr %2, align 8, !tbaa !3
  %4 = getelementptr inbounds nuw %struct.BrotliEncoderStateStruct, ptr %3, i32 0, i32 30
  %5 = load i64, ptr %4, align 8, !tbaa !67
  %6 = icmp ne i64 %5, 0
  %7 = xor i1 %6, true
  %8 = xor i1 %7, true
  %9 = select i1 %8, i32 1, i32 0
  ret i32 %9
}

; Function Attrs: nounwind uwtable
define i32 @BrotliEncoderIsFinished(ptr noundef %0) #0 {
  %2 = alloca ptr, align 8
  store ptr %0, ptr %2, align 8, !tbaa !3
  %3 = load ptr, ptr %2, align 8, !tbaa !3
  %4 = getelementptr inbounds nuw %struct.BrotliEncoderStateStruct, ptr %3, i32 0, i32 34
  %5 = load i32, ptr %4, align 4, !tbaa !69
  %6 = icmp eq i32 %5, 2
  br i1 %6, label %7, label %12

7:                                                ; preds = %1
  %8 = load ptr, ptr %2, align 8, !tbaa !3
  %9 = call i32 @BrotliEncoderHasMoreOutput(ptr noundef %8)
  %10 = icmp ne i32 %9, 0
  %11 = xor i1 %10, true
  br label %12

12:                                               ; preds = %7, %1
  %13 = phi i1 [ false, %1 ], [ %11, %7 ]
  %14 = xor i1 %13, true
  %15 = xor i1 %14, true
  %16 = select i1 %15, i32 1, i32 0
  ret i32 %16
}