; Function Attrs: mustprogress nofree norecurse nosync nounwind willreturn memory(argmem: read) uwtable
define range(i32 0, 2) i32 @BrotliEncoderIsFinished(ptr noundef readonly captures(none) %0) local_unnamed_addr #5 {
  %2 = getelementptr inbounds nuw i8, ptr %0, i64 6964
  %3 = load i32, ptr %2, align 4, !tbaa !57
  %4 = icmp eq i32 %3, 2
  br i1 %4, label %5, label %9

5:                                                ; preds = %1
  %6 = getelementptr inbounds nuw i8, ptr %0, i64 6928
  %7 = load i64, ptr %6, align 8, !tbaa !72
  %.not.i = icmp eq i64 %7, 0
  %8 = zext i1 %.not.i to i32
  br label %9

9:                                                ; preds = %5, %1
  %10 = phi i32 [ 0, %1 ], [ %8, %5 ]
  ret i32 %10
}